; Function Attrs: inlinehint mustprogress optsize uwtable
define internal noundef nonnull ptr @_ZZN8nanobind6detail11func_createILb1ELb1EZNS_6class_IZL30nanobind_init_test_holders_extRNS_7module_EE14ExampleWrapperJEE6def_rwIS5_7ExampleJEEERS6_PKcMT_T0_DpRKT1_EUlRS5_RKS8_E_vJSJ_SL_EJLm0ELm1EEJNS_9is_methodEEEEP7_objectOT1_PFT2_DpT3_ESt16integer_sequenceImJXspT4_EEEDpRKT5_ENUlPvPSP_PhNS_9rv_policyEPNS0_12cleanup_listEE_8__invokeES13_S14_S15_S16_S18_(ptr noundef readonly captures(none) %0, ptr noundef readonly captures(none) %1, ptr noundef readonly captures(none) %2, i32 %3, ptr noundef %4) #8 align 2 {
  %6 = alloca %"struct.nanobind::detail::tuple.581", align 8
  call void @llvm.lifetime.start.p0(i64 16, ptr nonnull %6) #26
  %7 = getelementptr inbounds nuw i8, ptr %6, i64 8
  %8 = load ptr, ptr %1, align 8, !tbaa !115
  %9 = load i8, ptr %2, align 1, !tbaa !37
  %10 = call noundef zeroext i1 @_ZN8nanobind6detail11nb_type_getEPKSt9type_infoP7_objecthPNS0_12cleanup_listEPPv(ptr noundef nonnull @_ZTIZL30nanobind_init_test_holders_extRN8nanobind7module_EE14ExampleWrapper, ptr noundef %8, i8 noundef zeroext %9, ptr noundef %4, ptr noundef nonnull align 8 dereferenceable(8) %7) #27
  br i1 %10, label %11, label %_ZZN8nanobind6detail11func_createILb1ELb1EZNS_6class_IZL30nanobind_init_test_holders_extRNS_7module_EE14ExampleWrapperJEE6def_rwIS5_7ExampleJEEERS6_PKcMT_T0_DpRKT1_EUlRS5_RKS8_E_vJSJ_SL_EJLm0ELm1EEJNS_9is_methodEEEEP7_objectOT1_PFT2_DpT3_ESt16integer_sequenceImJXspT4_EEEDpRKT5_ENKUlPvPSP_PhNS_9rv_policyEPNS0_12cleanup_listEE_clES13_S14_S15_S16_S18_.exit

11:                                               ; preds = %5
  %12 = getelementptr inbounds nuw i8, ptr %1, i64 8
  %13 = load ptr, ptr %12, align 8, !tbaa !115
  %14 = getelementptr inbounds nuw i8, ptr %2, i64 1
  %15 = load i8, ptr %14, align 1, !tbaa !37
  %16 = call noundef zeroext i1 @_ZN8nanobind6detail11nb_type_getEPKSt9type_infoP7_objecthPNS0_12cleanup_listEPPv(ptr noundef nonnull @_ZTI7Example, ptr noundef %13, i8 noundef zeroext %15, ptr noundef %4, ptr noundef nonnull align 8 dereferenceable(8) %6) #27
  br i1 %16, label %17, label %_ZZN8nanobind6detail11func_createILb1ELb1EZNS_6class_IZL30nanobind_init_test_holders_extRNS_7module_EE14ExampleWrapperJEE6def_rwIS5_7ExampleJEEERS6_PKcMT_T0_DpRKT1_EUlRS5_RKS8_E_vJSJ_SL_EJLm0ELm1EEJNS_9is_methodEEEEP7_objectOT1_PFT2_DpT3_ESt16integer_sequenceImJXspT4_EEEDpRKT5_ENKUlPvPSP_PhNS_9rv_policyEPNS0_12cleanup_listEE_clES13_S14_S15_S16_S18_.exit

17:                                               ; preds = %11
  %18 = load ptr, ptr %7, align 8, !tbaa !460
  call void @_ZN8nanobind6detail27raise_next_overload_if_nullEPv(ptr noundef %18) #25
  %19 = load ptr, ptr %7, align 8, !tbaa !460
  %20 = load ptr, ptr %6, align 8, !tbaa !143
  call void @_ZN8nanobind6detail27raise_next_overload_if_nullEPv(ptr noundef %20) #25
  %21 = load ptr, ptr %6, align 8, !tbaa !143
  %.val = load i64, ptr %0, align 8, !tbaa !465
  %.val4 = load i32, ptr %21, align 4, !tbaa !69
  %22 = getelementptr inbounds i8, ptr %19, i64 %.val
  store i32 %.val4, ptr %22, align 4, !tbaa !69
  %23 = load i64, ptr @_Py_NoneStruct, align 8, !tbaa !90
  %24 = add nsw i64 %23, 1
  store i64 %24, ptr @_Py_NoneStruct, align 8, !tbaa !90
  br label %_ZZN8nanobind6detail11func_createILb1ELb1EZNS_6class_IZL30nanobind_init_test_holders_extRNS_7module_EE14ExampleWrapperJEE6def_rwIS5_7ExampleJEEERS6_PKcMT_T0_DpRKT1_EUlRS5_RKS8_E_vJSJ_SL_EJLm0ELm1EEJNS_9is_methodEEEEP7_objectOT1_PFT2_DpT3_ESt16integer_sequenceImJXspT4_EEEDpRKT5_ENKUlPvPSP_PhNS_9rv_policyEPNS0_12cleanup_listEE_clES13_S14_S15_S16_S18_.exit

_ZZN8nanobind6detail11func_createILb1ELb1EZNS_6class_IZL30nanobind_init_test_holders_extRNS_7module_EE14ExampleWrapperJEE6def_rwIS5_7ExampleJEEERS6_PKcMT_T0_DpRKT1_EUlRS5_RKS8_E_vJSJ_SL_EJLm0ELm1EEJNS_9is_methodEEEEP7_objectOT1_PFT2_DpT3_ESt16integer_sequenceImJXspT4_EEEDpRKT5_ENKUlPvPSP_PhNS_9rv_policyEPNS0_12cleanup_listEE_clES13_S14_S15_S16_S18_.exit: ; preds = %5, %11, %17
  %.0.i = phi ptr [ @_Py_NoneStruct, %17 ], [ inttoptr (i64 1 to ptr), %11 ], [ inttoptr (i64 1 to ptr), %5 ]
  call void @llvm.lifetime.end.p0(i64 16, ptr nonnull %6) #26
  ret ptr %.0.i
}